target datalayout = "e-m:e-p270:32:32-p271:32:32-p272:64:64-i64:64-i128:128-f80:128-n8:16:32:64-S128"
target triple = "x86_64-pc-linux-gnu"

%struct.GCtab = type { %struct.GCRef, i8, i8, i8, i8, %struct.MRef, %struct.GCRef, %struct.GCRef, %struct.MRef, i32, i32, %struct.MRef }
%struct.GCRef = type { i64 }
%struct.MRef = type { i64 }
%struct.global_State = type { ptr, ptr, %struct.GCState, %struct.GCstr, i8, i8, i8, i8, %struct.StrInternState, i32, %struct.GCRef, %struct.SBuf, %union.TValue, %union.TValue, %struct.Node, %union.TValue, %struct.GCupval, i32, i32, ptr, ptr, ptr, i32, i32, %struct.GCRef, %struct.MRef, %struct.MRef, %struct.PRNGState, [39 x %struct.GCRef] }
%struct.GCState = type { i64, i64, i8, i8, i8, i8, i32, %struct.GCRef, %struct.MRef, %struct.GCRef, %struct.GCRef, %struct.GCRef, %struct.GCRef, i64, i64, i32, i32, %struct.MRef }
%struct.GCstr = type { %struct.GCRef, i8, i8, i8, i8, i32, i32, i32 }
%struct.StrInternState = type { ptr, i32, i32, i32, i8, i8, i8, i8, i64 }
%struct.SBuf = type { ptr, ptr, ptr, %struct.MRef }
%struct.Node = type { %union.TValue, %union.TValue, %struct.MRef }
%union.TValue = type { i64 }
%struct.GCupval = type { %struct.GCRef, i8, i8, i8, i8, %union.anon, %struct.MRef, i32 }
%union.anon = type { %struct.anon.1 }
%struct.anon.1 = type { %struct.GCRef, %struct.GCRef }
%struct.PRNGState = type { [4 x i64] }

; Function Attrs: alwaysinline nounwind uwtable
define internal void @lj_mem_free(ptr noundef %0, ptr noundef %1, i64 noundef %2) #2 {
  %4 = alloca ptr, align 8
  %5 = alloca ptr, align 8
  %6 = alloca i64, align 8
  store ptr %0, ptr %4, align 8, !tbaa !42
  store ptr %1, ptr %5, align 8, !tbaa !44
  store i64 %2, ptr %6, align 8, !tbaa !39
  %7 = load i64, ptr %6, align 8, !tbaa !39
  %8 = load ptr, ptr %4, align 8, !tbaa !42
  %9 = getelementptr inbounds nuw %struct.global_State, ptr %8, i32 0, i32 2
  %10 = getelementptr inbounds nuw %struct.GCState, ptr %9, i32 0, i32 0
  %11 = load i64, ptr %10, align 8, !tbaa !45
  %12 = sub i64 %11, %7
  store i64 %12, ptr %10, align 8, !tbaa !45
  %13 = load ptr, ptr %4, align 8, !tbaa !42
  %14 = getelementptr inbounds nuw %struct.global_State, ptr %13, i32 0, i32 0
  %15 = load ptr, ptr %14, align 8, !tbaa !55
  %16 = load ptr, ptr %4, align 8, !tbaa !42
  %17 = getelementptr inbounds nuw %struct.global_State, ptr %16, i32 0, i32 1
  %18 = load ptr, ptr %17, align 8, !tbaa !56
  %19 = load ptr, ptr %5, align 8, !tbaa !44
  %20 = load i64, ptr %6, align 8, !tbaa !39
  %21 = call ptr %15(ptr noundef %18, ptr noundef %19, i64 noundef %20, i64 noundef 0)
  ret void
}

; Function Attrs: nounwind uwtable
define hidden void @lj_tab_free(ptr noundef %0, ptr noundef %1) #0 {
  %3 = alloca ptr, align 8
  %4 = alloca ptr, align 8
  store ptr %0, ptr %3, align 8, !tbaa !42
  store ptr %1, ptr %4, align 8, !tbaa !11
  %5 = load ptr, ptr %4, align 8, !tbaa !11
  %6 = getelementptr inbounds nuw %struct.GCtab, ptr %5, i32 0, i32 10
  %7 = load i32, ptr %6, align 4, !tbaa !13
  %8 = icmp ugt i32 %7, 0
  br i1 %8, label %9, label %22

9:                                                ; preds = %2
  %10 = load ptr, ptr %3, align 8, !tbaa !42
  %11 = load ptr, ptr %4, align 8, !tbaa !11
  %12 = getelementptr inbounds nuw %struct.GCtab, ptr %11, i32 0, i32 8
  %13 = getelementptr inbounds nuw %struct.MRef, ptr %12, i32 0, i32 0
  %14 = load i64, ptr %13, align 8, !tbaa !29
  %15 = inttoptr i64 %14 to ptr
  %16 = load ptr, ptr %4, align 8, !tbaa !11
  %17 = getelementptr inbounds nuw %struct.GCtab, ptr %16, i32 0, i32 10
  %18 = load i32, ptr %17, align 4, !tbaa !13
  %19 = add i32 %18, 1
  %20 = zext i32 %19 to i64
  %21 = mul i64 %20, 24
  call void @lj_mem_free(ptr noundef %10, ptr noundef %15, i64 noundef %21)
  br label %22

22:                                               ; preds = %9, %2
  %23 = load ptr, ptr %4, align 8, !tbaa !11
  %24 = getelementptr inbounds nuw %struct.GCtab, ptr %23, i32 0, i32 9
  %25 = load i32, ptr %24, align 8, !tbaa !23
  %26 = icmp ugt i32 %25, 0
  br i1 %26, label %27, label %45

27:                                               ; preds = %22
  %28 = load ptr, ptr %4, align 8, !tbaa !11
  %29 = getelementptr inbounds nuw %struct.GCtab, ptr %28, i32 0, i32 4
  %30 = load i8, ptr %29, align 1, !tbaa !20
  %31 = sext i8 %30 to i32
  %32 = icmp sle i32 %31, 0
  br i1 %32, label %33, label %45

33:                                               ; preds = %27
  %34 = load ptr, ptr %3, align 8, !tbaa !42
  %35 = load ptr, ptr %4, align 8, !tbaa !11
  %36 = getelementptr inbounds nuw %struct.GCtab, ptr %35, i32 0, i32 5
  %37 = getelementptr inbounds nuw %struct.MRef, ptr %36, i32 0, i32 0
  %38 = load i64, ptr %37, align 8, !tbaa !21
  %39 = inttoptr i64 %38 to ptr
  %40 = load ptr, ptr %4, align 8, !tbaa !11
  %41 = getelementptr inbounds nuw %struct.GCtab, ptr %40, i32 0, i32 9
  %42 = load i32, ptr %41, align 8, !tbaa !23
  %43 = zext i32 %42 to i64
  %44 = mul i64 %43, 8
  call void @lj_mem_free(ptr noundef %34, ptr noundef %39, i64 noundef %44)
  br label %45

45:                                               ; preds = %33, %27, %22
  %46 = load ptr, ptr %4, align 8, !tbaa !11
  %47 = getelementptr inbounds nuw %struct.GCtab, ptr %46, i32 0, i32 4
  %48 = load i8, ptr %47, align 1, !tbaa !20
  %49 = sext i8 %48 to i32
  %50 = icmp ne i32 %49, 0
  br i1 %50, label %51, label %62

51:                                               ; preds = %45
  %52 = load ptr, ptr %3, align 8, !tbaa !42
  %53 = load ptr, ptr %4, align 8, !tbaa !11
  %54 = load ptr, ptr %4, align 8, !tbaa !11
  %55 = getelementptr inbounds nuw %struct.GCtab, ptr %54, i32 0, i32 4
  %56 = load i8, ptr %55, align 1, !tbaa !20
  %57 = sext i8 %56 to i32
  %58 = and i32 %57, 127
  %59 = zext i32 %58 to i64
  %60 = mul i64 %59, 8
  %61 = add i64 %60, 64
  call void @lj_mem_free(ptr noundef %52, ptr noundef %53, i64 noundef %61)
  br label %65

62:                                               ; preds = %45
  %63 = load ptr, ptr %3, align 8, !tbaa !42
  %64 = load ptr, ptr %4, align 8, !tbaa !11
  call void @lj_mem_free(ptr noundef %63, ptr noundef %64, i64 noundef 64)
  br label %65

65:                                               ; preds = %62, %51
  ret void
}