; Function Attrs: nounwind uwtable
define hidden void @lj_tab_free(ptr noundef captures(none) %0, ptr noundef %1) local_unnamed_addr #0 {
  %3 = getelementptr inbounds nuw i8, ptr %1, i64 52
  %4 = load i32, ptr %3, align 4, !tbaa !14
  %.not = icmp eq i32 %4, 0
  br i1 %.not, label %19, label %5

5:                                                ; preds = %2
  %6 = getelementptr inbounds nuw i8, ptr %1, i64 40
  %7 = load i64, ptr %6, align 8, !tbaa !15
  %8 = inttoptr i64 %7 to ptr
  %9 = add i32 %4, 1
  %10 = zext i32 %9 to i64
  %11 = mul nuw nsw i64 %10, 24
  %12 = getelementptr inbounds nuw i8, ptr %0, i64 16
  %13 = load i64, ptr %12, align 8, !tbaa !31
  %14 = sub i64 %13, %11
  store i64 %14, ptr %12, align 8, !tbaa !31
  %15 = load ptr, ptr %0, align 8, !tbaa !41
  %16 = getelementptr inbounds nuw i8, ptr %0, i64 8
  %17 = load ptr, ptr %16, align 8, !tbaa !42
  %18 = tail call ptr %15(ptr noundef %17, ptr noundef %8, i64 noundef range(i64 0, 103079215081) %11, i64 noundef 0) #11
  br label %19

19:                                               ; preds = %5, %2
  %20 = getelementptr inbounds nuw i8, ptr %1, i64 48
  %21 = load i32, ptr %20, align 8, !tbaa !4
  %.not17 = icmp eq i32 %21, 0
  br i1 %.not17, label %39, label %22

22:                                               ; preds = %19
  %23 = getelementptr inbounds nuw i8, ptr %1, i64 11
  %24 = load i8, ptr %23, align 1, !tbaa !22
  %25 = icmp slt i8 %24, 1
  br i1 %25, label %26, label %39

26:                                               ; preds = %22
  %27 = getelementptr inbounds nuw i8, ptr %1, i64 16
  %28 = load i64, ptr %27, align 8, !tbaa !12
  %29 = inttoptr i64 %28 to ptr
  %30 = zext i32 %21 to i64
  %31 = shl nuw nsw i64 %30, 3
  %32 = getelementptr inbounds nuw i8, ptr %0, i64 16
  %33 = load i64, ptr %32, align 8, !tbaa !31
  %34 = sub i64 %33, %31
  store i64 %34, ptr %32, align 8, !tbaa !31
  %35 = load ptr, ptr %0, align 8, !tbaa !41
  %36 = getelementptr inbounds nuw i8, ptr %0, i64 8
  %37 = load ptr, ptr %36, align 8, !tbaa !42
  %38 = tail call ptr %35(ptr noundef %37, ptr noundef %29, i64 noundef range(i64 0, 103079215081) %31, i64 noundef 0) #11
  br label %39

39:                                               ; preds = %26, %22, %19
  %40 = getelementptr inbounds nuw i8, ptr %1, i64 11
  %41 = load i8, ptr %40, align 1, !tbaa !22
  %.not18 = icmp eq i8 %41, 0
  br i1 %.not18, label %50, label %42

42:                                               ; preds = %39
  %43 = and i8 %41, 127
  %44 = zext nneg i8 %43 to i64
  %45 = shl nuw nsw i64 %44, 3
  %46 = add nuw nsw i64 %45, 64
  %47 = getelementptr inbounds nuw i8, ptr %0, i64 16
  %48 = load i64, ptr %47, align 8, !tbaa !31
  %49 = sub i64 %48, %46
  store i64 %49, ptr %47, align 8, !tbaa !31
  br label %54

50:                                               ; preds = %39
  %51 = getelementptr inbounds nuw i8, ptr %0, i64 16
  %52 = load i64, ptr %51, align 8, !tbaa !31
  %53 = add i64 %52, -64
  store i64 %53, ptr %51, align 8, !tbaa !31
  br label %54

54:                                               ; preds = %50, %42
  %.sink19 = phi i64 [ 64, %50 ], [ %46, %42 ]
  %55 = load ptr, ptr %0, align 8, !tbaa !41
  %56 = getelementptr inbounds nuw i8, ptr %0, i64 8
  %57 = load ptr, ptr %56, align 8, !tbaa !42
  %58 = tail call ptr %55(ptr noundef %57, ptr noundef nonnull %1, i64 noundef %.sink19, i64 noundef 0) #11
  ret void
}